target datalayout = "e-m:e-p270:32:32-p271:32:32-p272:64:64-i64:64-i128:128-f80:128-n8:16:32:64-S128"
target triple = "x86_64-pc-linux-gnu"

@WC_PKCS12_CertBag_OID = internal constant [11 x i8] c"*\86H\86\F7\0D\01\0C\0A\01\03", align 1
@WC_PKCS12_CertBag_Type1_OID = internal constant [10 x i8] c"*\86H\86\F7\0D\01\09\16\01", align 1

; Function Attrs: nounwind uwtable
define internal i32 @wc_PKCS12_create_cert_bag(ptr noundef %0, ptr noundef %1, ptr noundef %2, ptr noundef %3, i32 noundef %4) #0 {
  %6 = alloca i32, align 4
  %7 = alloca ptr, align 8
  %8 = alloca ptr, align 8
  %9 = alloca ptr, align 8
  %10 = alloca ptr, align 8
  %11 = alloca i32, align 4
  %12 = alloca i32, align 4
  %13 = alloca i32, align 4
  %14 = alloca i32, align 4
  %15 = alloca i32, align 4
  %16 = alloca i32, align 4
  %17 = alloca i32, align 4
  %18 = alloca i32, align 4
  %19 = alloca i32, align 4
  %20 = alloca i32, align 4
  store ptr %0, ptr %7, align 8, !tbaa !7
  store ptr %1, ptr %8, align 8, !tbaa !32
  store ptr %2, ptr %9, align 8, !tbaa !37
  store ptr %3, ptr %10, align 8, !tbaa !32
  store i32 %4, ptr %11, align 4, !tbaa !24
  call void @llvm.lifetime.start.p0(i64 4, ptr %12) #7
  store i32 0, ptr %12, align 4, !tbaa !24
  call void @llvm.lifetime.start.p0(i64 4, ptr %13) #7
  store i32 0, ptr %13, align 4, !tbaa !24
  call void @llvm.lifetime.start.p0(i64 4, ptr %14) #7
  store i32 0, ptr %14, align 4, !tbaa !24
  call void @llvm.lifetime.start.p0(i64 4, ptr %15) #7
  call void @llvm.lifetime.start.p0(i64 4, ptr %16) #7
  store i32 13, ptr %16, align 4, !tbaa !24
  call void @llvm.lifetime.start.p0(i64 4, ptr %17) #7
  store i32 12, ptr %17, align 4, !tbaa !24
  call void @llvm.lifetime.start.p0(i64 4, ptr %18) #7
  call void @llvm.lifetime.start.p0(i64 4, ptr %19) #7
  %21 = load ptr, ptr %8, align 8, !tbaa !32
  %22 = icmp eq ptr %21, null
  br i1 %22, label %23, label %38

23:                                               ; preds = %5
  %24 = load i32, ptr %16, align 4, !tbaa !24
  %25 = add nsw i32 6, %24
  %26 = add nsw i32 %25, 1
  %27 = add nsw i32 %26, 5
  %28 = add nsw i32 %27, 6
  %29 = load i32, ptr %17, align 4, !tbaa !24
  %30 = add nsw i32 %28, %29
  %31 = add nsw i32 %30, 1
  %32 = add nsw i32 %31, 5
  %33 = add nsw i32 %32, 1
  %34 = add nsw i32 %33, 5
  %35 = load i32, ptr %11, align 4, !tbaa !24
  %36 = add nsw i32 %34, %35
  %37 = load ptr, ptr %9, align 8, !tbaa !37
  store i32 %36, ptr %37, align 4, !tbaa !24
  store i32 -202, ptr %6, align 4
  store i32 1, ptr %20, align 4
  br label %290

38:                                               ; preds = %5
  %39 = load ptr, ptr %9, align 8, !tbaa !37
  %40 = load i32, ptr %39, align 4, !tbaa !24
  %41 = load i32, ptr %16, align 4, !tbaa !24
  %42 = add nsw i32 6, %41
  %43 = add nsw i32 %42, 1
  %44 = add nsw i32 %43, 5
  %45 = add nsw i32 %44, 6
  %46 = load i32, ptr %17, align 4, !tbaa !24
  %47 = add nsw i32 %45, %46
  %48 = add nsw i32 %47, 1
  %49 = add nsw i32 %48, 5
  %50 = add nsw i32 %49, 1
  %51 = add nsw i32 %50, 5
  %52 = load i32, ptr %11, align 4, !tbaa !24
  %53 = add nsw i32 %51, %52
  %54 = icmp ult i32 %40, %53
  br i1 %54, label %55, label %56

55:                                               ; preds = %38
  store i32 -132, ptr %6, align 4
  store i32 1, ptr %20, align 4
  br label %290

56:                                               ; preds = %38
  %57 = load i32, ptr %13, align 4, !tbaa !24
  %58 = add i32 %57, 6
  store i32 %58, ptr %13, align 4, !tbaa !24
  %59 = load ptr, ptr %8, align 8, !tbaa !32
  %60 = load i32, ptr %13, align 4, !tbaa !24
  %61 = add i32 %60, 1
  store i32 %61, ptr %13, align 4, !tbaa !24
  %62 = zext i32 %60 to i64
  %63 = getelementptr inbounds nuw i8, ptr %59, i64 %62
  store i8 6, ptr %63, align 1, !tbaa !40
  %64 = load i32, ptr %14, align 4, !tbaa !24
  %65 = add i32 %64, 1
  store i32 %65, ptr %14, align 4, !tbaa !24
  %66 = load ptr, ptr %8, align 8, !tbaa !32
  %67 = load i32, ptr %13, align 4, !tbaa !24
  %68 = zext i32 %67 to i64
  %69 = getelementptr inbounds nuw i8, ptr %66, i64 %68
  %70 = call i32 @SetLength(i32 noundef 11, ptr noundef %69)
  store i32 %70, ptr %15, align 4, !tbaa !24
  %71 = load i32, ptr %15, align 4, !tbaa !24
  %72 = load i32, ptr %13, align 4, !tbaa !24
  %73 = add i32 %72, %71
  store i32 %73, ptr %13, align 4, !tbaa !24
  %74 = load i32, ptr %15, align 4, !tbaa !24
  %75 = load i32, ptr %14, align 4, !tbaa !24
  %76 = add i32 %75, %74
  store i32 %76, ptr %14, align 4, !tbaa !24
  store i32 0, ptr %18, align 4, !tbaa !24
  br label %77

77:                                               ; preds = %93, %56
  %78 = load i32, ptr %18, align 4, !tbaa !24
  %79 = zext i32 %78 to i64
  %80 = icmp ult i64 %79, 11
  br i1 %80, label %81, label %96

81:                                               ; preds = %77
  %82 = load i32, ptr %18, align 4, !tbaa !24
  %83 = zext i32 %82 to i64
  %84 = getelementptr inbounds nuw [11 x i8], ptr @WC_PKCS12_CertBag_OID, i64 0, i64 %83
  %85 = load i8, ptr %84, align 1, !tbaa !40
  %86 = load ptr, ptr %8, align 8, !tbaa !32
  %87 = load i32, ptr %13, align 4, !tbaa !24
  %88 = add i32 %87, 1
  store i32 %88, ptr %13, align 4, !tbaa !24
  %89 = zext i32 %87 to i64
  %90 = getelementptr inbounds nuw i8, ptr %86, i64 %89
  store i8 %85, ptr %90, align 1, !tbaa !40
  %91 = load i32, ptr %14, align 4, !tbaa !24
  %92 = add i32 %91, 1
  store i32 %92, ptr %14, align 4, !tbaa !24
  br label %93

93:                                               ; preds = %81
  %94 = load i32, ptr %18, align 4, !tbaa !24
  %95 = add i32 %94, 1
  store i32 %95, ptr %18, align 4, !tbaa !24
  br label %77, !llvm.loop !73

96:                                               ; preds = %77
  %97 = load ptr, ptr %8, align 8, !tbaa !32
  %98 = load i32, ptr %13, align 4, !tbaa !24
  %99 = add i32 %98, 1
  store i32 %99, ptr %13, align 4, !tbaa !24
  %100 = zext i32 %98 to i64
  %101 = getelementptr inbounds nuw i8, ptr %97, i64 %100
  store i8 -96, ptr %101, align 1, !tbaa !40
  %102 = load i32, ptr %14, align 4, !tbaa !24
  %103 = add i32 %102, 1
  store i32 %103, ptr %14, align 4, !tbaa !24
  %104 = load i32, ptr %13, align 4, !tbaa !24
  %105 = add i32 %104, 5
  store i32 %105, ptr %13, align 4, !tbaa !24
  %106 = load i32, ptr %13, align 4, !tbaa !24
  %107 = add i32 %106, 6
  store i32 %107, ptr %13, align 4, !tbaa !24
  %108 = load ptr, ptr %8, align 8, !tbaa !32
  %109 = load i32, ptr %13, align 4, !tbaa !24
  %110 = add i32 %109, 1
  store i32 %110, ptr %13, align 4, !tbaa !24
  %111 = zext i32 %109 to i64
  %112 = getelementptr inbounds nuw i8, ptr %108, i64 %111
  store i8 6, ptr %112, align 1, !tbaa !40
  %113 = load i32, ptr %12, align 4, !tbaa !24
  %114 = add i32 %113, 1
  store i32 %114, ptr %12, align 4, !tbaa !24
  %115 = load ptr, ptr %8, align 8, !tbaa !32
  %116 = load i32, ptr %13, align 4, !tbaa !24
  %117 = zext i32 %116 to i64
  %118 = getelementptr inbounds nuw i8, ptr %115, i64 %117
  %119 = call i32 @SetLength(i32 noundef 10, ptr noundef %118)
  store i32 %119, ptr %15, align 4, !tbaa !24
  %120 = load i32, ptr %15, align 4, !tbaa !24
  %121 = load i32, ptr %13, align 4, !tbaa !24
  %122 = add i32 %121, %120
  store i32 %122, ptr %13, align 4, !tbaa !24
  %123 = load i32, ptr %15, align 4, !tbaa !24
  %124 = load i32, ptr %12, align 4, !tbaa !24
  %125 = add i32 %124, %123
  store i32 %125, ptr %12, align 4, !tbaa !24
  store i32 0, ptr %18, align 4, !tbaa !24
  br label %126

126:                                              ; preds = %142, %96
  %127 = load i32, ptr %18, align 4, !tbaa !24
  %128 = zext i32 %127 to i64
  %129 = icmp ult i64 %128, 10
  br i1 %129, label %130, label %145

130:                                              ; preds = %126
  %131 = load i32, ptr %18, align 4, !tbaa !24
  %132 = zext i32 %131 to i64
  %133 = getelementptr inbounds nuw [10 x i8], ptr @WC_PKCS12_CertBag_Type1_OID, i64 0, i64 %132
  %134 = load i8, ptr %133, align 1, !tbaa !40
  %135 = load ptr, ptr %8, align 8, !tbaa !32
  %136 = load i32, ptr %13, align 4, !tbaa !24
  %137 = add i32 %136, 1
  store i32 %137, ptr %13, align 4, !tbaa !24
  %138 = zext i32 %136 to i64
  %139 = getelementptr inbounds nuw i8, ptr %135, i64 %138
  store i8 %134, ptr %139, align 1, !tbaa !40
  %140 = load i32, ptr %12, align 4, !tbaa !24
  %141 = add i32 %140, 1
  store i32 %141, ptr %12, align 4, !tbaa !24
  br label %142

142:                                              ; preds = %130
  %143 = load i32, ptr %18, align 4, !tbaa !24
  %144 = add i32 %143, 1
  store i32 %144, ptr %18, align 4, !tbaa !24
  br label %126, !llvm.loop !74

145:                                              ; preds = %126
  %146 = load ptr, ptr %8, align 8, !tbaa !32
  %147 = load i32, ptr %13, align 4, !tbaa !24
  %148 = add i32 %147, 1
  store i32 %148, ptr %13, align 4, !tbaa !24
  %149 = zext i32 %147 to i64
  %150 = getelementptr inbounds nuw i8, ptr %146, i64 %149
  store i8 -96, ptr %150, align 1, !tbaa !40
  %151 = load i32, ptr %12, align 4, !tbaa !24
  %152 = add i32 %151, 1
  store i32 %152, ptr %12, align 4, !tbaa !24
  store i32 0, ptr %15, align 4, !tbaa !24
  %153 = load i32, ptr %13, align 4, !tbaa !24
  %154 = add i32 %153, 5
  store i32 %154, ptr %13, align 4, !tbaa !24
  %155 = load ptr, ptr %8, align 8, !tbaa !32
  %156 = load i32, ptr %13, align 4, !tbaa !24
  %157 = add i32 %156, 1
  store i32 %157, ptr %13, align 4, !tbaa !24
  %158 = zext i32 %156 to i64
  %159 = getelementptr inbounds nuw i8, ptr %155, i64 %158
  store i8 4, ptr %159, align 1, !tbaa !40
  %160 = load i32, ptr %15, align 4, !tbaa !24
  %161 = add i32 %160, 1
  store i32 %161, ptr %15, align 4, !tbaa !24
  %162 = load i32, ptr %11, align 4, !tbaa !24
  %163 = load ptr, ptr %8, align 8, !tbaa !32
  %164 = load i32, ptr %13, align 4, !tbaa !24
  %165 = zext i32 %164 to i64
  %166 = getelementptr inbounds nuw i8, ptr %163, i64 %165
  %167 = call i32 @SetLength(i32 noundef %162, ptr noundef %166)
  store i32 %167, ptr %19, align 4, !tbaa !24
  %168 = load i32, ptr %19, align 4, !tbaa !24
  %169 = load i32, ptr %13, align 4, !tbaa !24
  %170 = add i32 %169, %168
  store i32 %170, ptr %13, align 4, !tbaa !24
  %171 = load i32, ptr %19, align 4, !tbaa !24
  %172 = load i32, ptr %15, align 4, !tbaa !24
  %173 = add i32 %172, %171
  store i32 %173, ptr %15, align 4, !tbaa !24
  %174 = load ptr, ptr %8, align 8, !tbaa !32
  %175 = load i32, ptr %13, align 4, !tbaa !24
  %176 = zext i32 %175 to i64
  %177 = getelementptr inbounds nuw i8, ptr %174, i64 %176
  %178 = load ptr, ptr %10, align 8, !tbaa !32
  %179 = load i32, ptr %11, align 4, !tbaa !24
  %180 = zext i32 %179 to i64
  call void @llvm.memcpy.p0.p0.i64(ptr align 1 %177, ptr align 1 %178, i64 %180, i1 false)
  %181 = load i32, ptr %11, align 4, !tbaa !24
  %182 = load i32, ptr %13, align 4, !tbaa !24
  %183 = add i32 %182, %181
  store i32 %183, ptr %13, align 4, !tbaa !24
  %184 = load i32, ptr %11, align 4, !tbaa !24
  %185 = load i32, ptr %15, align 4, !tbaa !24
  %186 = add i32 %185, %184
  store i32 %186, ptr %15, align 4, !tbaa !24
  %187 = load i32, ptr %15, align 4, !tbaa !24
  %188 = add i32 %187, 5
  %189 = load i32, ptr %13, align 4, !tbaa !24
  %190 = sub i32 %189, %188
  store i32 %190, ptr %13, align 4, !tbaa !24
  %191 = load i32, ptr %15, align 4, !tbaa !24
  %192 = load ptr, ptr %8, align 8, !tbaa !32
  %193 = load i32, ptr %13, align 4, !tbaa !24
  %194 = zext i32 %193 to i64
  %195 = getelementptr inbounds nuw i8, ptr %192, i64 %194
  %196 = call i32 @SetLength(i32 noundef %191, ptr noundef %195)
  store i32 %196, ptr %19, align 4, !tbaa !24
  %197 = load ptr, ptr %8, align 8, !tbaa !32
  %198 = load i32, ptr %13, align 4, !tbaa !24
  %199 = zext i32 %198 to i64
  %200 = getelementptr inbounds nuw i8, ptr %197, i64 %199
  %201 = load i32, ptr %19, align 4, !tbaa !24
  %202 = zext i32 %201 to i64
  %203 = getelementptr inbounds nuw i8, ptr %200, i64 %202
  %204 = load ptr, ptr %8, align 8, !tbaa !32
  %205 = load i32, ptr %13, align 4, !tbaa !24
  %206 = zext i32 %205 to i64
  %207 = getelementptr inbounds nuw i8, ptr %204, i64 %206
  %208 = getelementptr inbounds i8, ptr %207, i64 5
  %209 = load i32, ptr %15, align 4, !tbaa !24
  %210 = zext i32 %209 to i64
  call void @llvm.memmove.p0.p0.i64(ptr align 1 %203, ptr align 1 %208, i64 %210, i1 false)
  %211 = load i32, ptr %19, align 4, !tbaa !24
  %212 = load i32, ptr %15, align 4, !tbaa !24
  %213 = add i32 %211, %212
  %214 = load i32, ptr %13, align 4, !tbaa !24
  %215 = add i32 %214, %213
  store i32 %215, ptr %13, align 4, !tbaa !24
  %216 = load i32, ptr %19, align 4, !tbaa !24
  %217 = load i32, ptr %15, align 4, !tbaa !24
  %218 = add i32 %216, %217
  %219 = load i32, ptr %12, align 4, !tbaa !24
  %220 = add i32 %219, %218
  store i32 %220, ptr %12, align 4, !tbaa !24
  %221 = load i32, ptr %12, align 4, !tbaa !24
  %222 = add i32 %221, 6
  %223 = load i32, ptr %13, align 4, !tbaa !24
  %224 = sub i32 %223, %222
  store i32 %224, ptr %13, align 4, !tbaa !24
  %225 = load i32, ptr %12, align 4, !tbaa !24
  %226 = load ptr, ptr %8, align 8, !tbaa !32
  %227 = load i32, ptr %13, align 4, !tbaa !24
  %228 = zext i32 %227 to i64
  %229 = getelementptr inbounds nuw i8, ptr %226, i64 %228
  %230 = call i32 @SetSequence(i32 noundef %225, ptr noundef %229)
  store i32 %230, ptr %19, align 4, !tbaa !24
  %231 = load ptr, ptr %8, align 8, !tbaa !32
  %232 = load i32, ptr %13, align 4, !tbaa !24
  %233 = zext i32 %232 to i64
  %234 = getelementptr inbounds nuw i8, ptr %231, i64 %233
  %235 = load i32, ptr %19, align 4, !tbaa !24
  %236 = zext i32 %235 to i64
  %237 = getelementptr inbounds nuw i8, ptr %234, i64 %236
  %238 = load ptr, ptr %8, align 8, !tbaa !32
  %239 = load i32, ptr %13, align 4, !tbaa !24
  %240 = zext i32 %239 to i64
  %241 = getelementptr inbounds nuw i8, ptr %238, i64 %240
  %242 = getelementptr inbounds i8, ptr %241, i64 6
  %243 = load i32, ptr %12, align 4, !tbaa !24
  %244 = zext i32 %243 to i64
  call void @llvm.memmove.p0.p0.i64(ptr align 1 %237, ptr align 1 %242, i64 %244, i1 false)
  %245 = load i32, ptr %19, align 4, !tbaa !24
  %246 = load i32, ptr %12, align 4, !tbaa !24
  %247 = add i32 %246, %245
  store i32 %247, ptr %12, align 4, !tbaa !24
  %248 = load i32, ptr %13, align 4, !tbaa !24
  %249 = sub i32 %248, 5
  store i32 %249, ptr %13, align 4, !tbaa !24
  %250 = load i32, ptr %12, align 4, !tbaa !24
  %251 = load ptr, ptr %8, align 8, !tbaa !32
  %252 = load i32, ptr %13, align 4, !tbaa !24
  %253 = zext i32 %252 to i64
  %254 = getelementptr inbounds nuw i8, ptr %251, i64 %253
  %255 = call i32 @SetLength(i32 noundef %250, ptr noundef %254)
  store i32 %255, ptr %19, align 4, !tbaa !24
  %256 = load ptr, ptr %8, align 8, !tbaa !32
  %257 = load i32, ptr %13, align 4, !tbaa !24
  %258 = zext i32 %257 to i64
  %259 = getelementptr inbounds nuw i8, ptr %256, i64 %258
  %260 = load i32, ptr %19, align 4, !tbaa !24
  %261 = zext i32 %260 to i64
  %262 = getelementptr inbounds nuw i8, ptr %259, i64 %261
  %263 = load ptr, ptr %8, align 8, !tbaa !32
  %264 = load i32, ptr %13, align 4, !tbaa !24
  %265 = zext i32 %264 to i64
  %266 = getelementptr inbounds nuw i8, ptr %263, i64 %265
  %267 = getelementptr inbounds i8, ptr %266, i64 5
  %268 = load i32, ptr %12, align 4, !tbaa !24
  %269 = zext i32 %268 to i64
  call void @llvm.memmove.p0.p0.i64(ptr align 1 %262, ptr align 1 %267, i64 %269, i1 false)
  %270 = load i32, ptr %19, align 4, !tbaa !24
  %271 = load i32, ptr %12, align 4, !tbaa !24
  %272 = add i32 %271, %270
  store i32 %272, ptr %12, align 4, !tbaa !24
  %273 = load i32, ptr %12, align 4, !tbaa !24
  %274 = load i32, ptr %14, align 4, !tbaa !24
  %275 = add i32 %274, %273
  store i32 %275, ptr %14, align 4, !tbaa !24
  %276 = load i32, ptr %14, align 4, !tbaa !24
  %277 = load ptr, ptr %8, align 8, !tbaa !32
  %278 = call i32 @SetSequence(i32 noundef %276, ptr noundef %277)
  store i32 %278, ptr %19, align 4, !tbaa !24
  %279 = load ptr, ptr %8, align 8, !tbaa !32
  %280 = load i32, ptr %19, align 4, !tbaa !24
  %281 = zext i32 %280 to i64
  %282 = getelementptr inbounds nuw i8, ptr %279, i64 %281
  %283 = load ptr, ptr %8, align 8, !tbaa !32
  %284 = getelementptr inbounds i8, ptr %283, i64 6
  %285 = load i32, ptr %14, align 4, !tbaa !24
  %286 = zext i32 %285 to i64
  call void @llvm.memmove.p0.p0.i64(ptr align 1 %282, ptr align 1 %284, i64 %286, i1 false)
  %287 = load i32, ptr %14, align 4, !tbaa !24
  %288 = load i32, ptr %19, align 4, !tbaa !24
  %289 = add i32 %287, %288
  store i32 %289, ptr %6, align 4
  store i32 1, ptr %20, align 4
  br label %290

290:                                              ; preds = %145, %55, %23
  call void @llvm.lifetime.end.p0(i64 4, ptr %19) #7
  call void @llvm.lifetime.end.p0(i64 4, ptr %18) #7
  call void @llvm.lifetime.end.p0(i64 4, ptr %17) #7
  call void @llvm.lifetime.end.p0(i64 4, ptr %16) #7
  call void @llvm.lifetime.end.p0(i64 4, ptr %15) #7
  call void @llvm.lifetime.end.p0(i64 4, ptr %14) #7
  call void @llvm.lifetime.end.p0(i64 4, ptr %13) #7
  call void @llvm.lifetime.end.p0(i64 4, ptr %12) #7
  %291 = load i32, ptr %6, align 4
  ret i32 %291
}