; Function Attrs: nounwind uwtable
define internal fastcc i32 @wc_PKCS12_create_cert_bag(ptr noundef %0, ptr noundef nonnull captures(none) %1, ptr noundef readonly captures(none) %2, i32 noundef %3) unnamed_addr #0 {
  %5 = icmp eq ptr %0, null
  br i1 %5, label %6, label %8

6:                                                ; preds = %4
  %7 = add nsw i32 %3, 55
  store i32 %7, ptr %1, align 4, !tbaa !28
  br label %94

8:                                                ; preds = %4
  %9 = load i32, ptr %1, align 4, !tbaa !28
  %10 = add nsw i32 %3, 55
  %11 = icmp ult i32 %9, %10
  br i1 %11, label %94, label %12

12:                                               ; preds = %8
  %13 = getelementptr inbounds nuw i8, ptr %0, i64 6
  store i8 6, ptr %13, align 1, !tbaa !31
  %14 = getelementptr inbounds nuw i8, ptr %0, i64 7
  %15 = tail call i32 @SetLength(i32 noundef 11, ptr noundef nonnull %14) #9
  %16 = add i32 %15, 7
  br label %17

17:                                               ; preds = %12, %17
  %indvars.iv = phi i64 [ 0, %12 ], [ %indvars.iv.next, %17 ]
  %.01215 = phi i32 [ %16, %12 ], [ %20, %17 ]
  %18 = getelementptr inbounds nuw [11 x i8], ptr @WC_PKCS12_CertBag_OID, i64 0, i64 %indvars.iv
  %19 = load i8, ptr %18, align 1, !tbaa !31
  %20 = add i32 %.01215, 1
  %21 = zext i32 %.01215 to i64
  %22 = getelementptr inbounds nuw i8, ptr %0, i64 %21
  store i8 %19, ptr %22, align 1, !tbaa !31
  %indvars.iv.next = add nuw nsw i64 %indvars.iv, 1
  %exitcond.not = icmp eq i64 %indvars.iv.next, 11
  br i1 %exitcond.not, label %23, label %17, !llvm.loop !60

23:                                               ; preds = %17
  %24 = zext i32 %20 to i64
  %25 = getelementptr inbounds nuw i8, ptr %0, i64 %24
  store i8 -96, ptr %25, align 1, !tbaa !31
  %26 = add i32 %.01215, 13
  %27 = add i32 %.01215, 14
  %28 = zext i32 %26 to i64
  %29 = getelementptr inbounds nuw i8, ptr %0, i64 %28
  store i8 6, ptr %29, align 1, !tbaa !31
  %30 = zext i32 %27 to i64
  %31 = getelementptr inbounds nuw i8, ptr %0, i64 %30
  %32 = tail call i32 @SetLength(i32 noundef 10, ptr noundef nonnull %31) #9
  %33 = add i32 %32, %27
  br label %34

34:                                               ; preds = %23, %34
  %indvars.iv12 = phi i64 [ 0, %23 ], [ %indvars.iv.next13, %34 ]
  %.11227 = phi i32 [ %33, %23 ], [ %37, %34 ]
  %35 = getelementptr inbounds nuw [10 x i8], ptr @WC_PKCS12_CertBag_Type1_OID, i64 0, i64 %indvars.iv12
  %36 = load i8, ptr %35, align 1, !tbaa !31
  %37 = add i32 %.11227, 1
  %38 = zext i32 %.11227 to i64
  %39 = getelementptr inbounds nuw i8, ptr %0, i64 %38
  store i8 %36, ptr %39, align 1, !tbaa !31
  %indvars.iv.next13 = add nuw nsw i64 %indvars.iv12, 1
  %exitcond15.not = icmp eq i64 %indvars.iv.next13, 10
  br i1 %exitcond15.not, label %40, label %34, !llvm.loop !61

40:                                               ; preds = %34
  %41 = zext i32 %37 to i64
  %42 = getelementptr inbounds nuw i8, ptr %0, i64 %41
  store i8 -96, ptr %42, align 1, !tbaa !31
  %43 = add i32 %32, 12
  %44 = add i32 %.11227, 7
  %45 = add i32 %.11227, 8
  %46 = zext i32 %44 to i64
  %47 = getelementptr inbounds nuw i8, ptr %0, i64 %46
  store i8 4, ptr %47, align 1, !tbaa !31
  %48 = zext i32 %45 to i64
  %49 = getelementptr inbounds nuw i8, ptr %0, i64 %48
  %50 = tail call i32 @SetLength(i32 noundef %3, ptr noundef nonnull %49) #9
  %51 = add i32 %50, %45
  %52 = zext i32 %51 to i64
  %53 = getelementptr inbounds nuw i8, ptr %0, i64 %52
  %54 = zext i32 %3 to i64
  tail call void @llvm.memcpy.p0.p0.i64(ptr nonnull align 1 %53, ptr align 1 %2, i64 %54, i1 false)
  %55 = add i32 %3, 1
  %56 = add i32 %55, %50
  %.neg1 = add i32 %3, -5
  %57 = add i32 %.neg1, %51
  %58 = sub i32 %57, %56
  %59 = zext i32 %58 to i64
  %60 = getelementptr inbounds nuw i8, ptr %0, i64 %59
  %61 = tail call i32 @SetLength(i32 noundef %56, ptr noundef nonnull %60) #9
  %62 = zext i32 %61 to i64
  %63 = getelementptr inbounds nuw i8, ptr %60, i64 %62
  %64 = getelementptr inbounds nuw i8, ptr %60, i64 5
  %65 = zext i32 %56 to i64
  tail call void @llvm.memmove.p0.p0.i64(ptr nonnull align 1 %63, ptr nonnull align 1 %64, i64 %65, i1 false)
  %66 = add i32 %61, %56
  %67 = add i32 %43, %66
  %.neg3 = add i32 %66, -6
  %68 = add i32 %.neg3, %58
  %69 = sub i32 %68, %67
  %70 = zext i32 %69 to i64
  %71 = getelementptr inbounds nuw i8, ptr %0, i64 %70
  %72 = tail call i32 @SetSequence(i32 noundef %67, ptr noundef nonnull %71) #9
  %73 = zext i32 %72 to i64
  %74 = getelementptr inbounds nuw i8, ptr %71, i64 %73
  %75 = getelementptr inbounds nuw i8, ptr %71, i64 6
  %76 = zext i32 %67 to i64
  tail call void @llvm.memmove.p0.p0.i64(ptr nonnull align 1 %74, ptr nonnull align 1 %75, i64 %76, i1 false)
  %77 = add i32 %67, %72
  %78 = add i32 %69, -5
  %79 = zext i32 %78 to i64
  %80 = getelementptr inbounds nuw i8, ptr %0, i64 %79
  %81 = tail call i32 @SetLength(i32 noundef %77, ptr noundef nonnull %80) #9
  %82 = zext i32 %81 to i64
  %83 = getelementptr inbounds nuw i8, ptr %80, i64 %82
  %84 = getelementptr inbounds nuw i8, ptr %80, i64 5
  %85 = zext i32 %77 to i64
  tail call void @llvm.memmove.p0.p0.i64(ptr nonnull align 1 %83, ptr nonnull align 1 %84, i64 %85, i1 false)
  %86 = add i32 %15, 13
  %87 = add i32 %86, %77
  %88 = add i32 %87, %81
  %89 = tail call i32 @SetSequence(i32 noundef %88, ptr noundef nonnull %0) #9
  %90 = zext i32 %89 to i64
  %91 = getelementptr inbounds nuw i8, ptr %0, i64 %90
  %92 = zext i32 %88 to i64
  tail call void @llvm.memmove.p0.p0.i64(ptr nonnull align 1 %91, ptr nonnull align 1 %13, i64 %92, i1 false)
  %93 = add i32 %89, %88
  br label %94

94:                                               ; preds = %8, %40, %6
  %.0 = phi i32 [ -202, %6 ], [ %93, %40 ], [ -132, %8 ]
  ret i32 %.0
}